target datalayout = "e-m:e-p270:32:32-p271:32:32-p272:64:64-i64:64-i128:128-f80:128-n8:16:32:64-S128"
target triple = "x86_64-pc-linux-gnu"

%struct.extra_esp_sa_records_t = type { i32, ptr }
%struct.uat_esp_sa_record_t = type { i8, ptr, ptr, ptr, i8, ptr, ptr, i32, i8, ptr, i8, ptr, ptr, i32, i8, i32 }

@extra_esp_sa_records = internal global %struct.extra_esp_sa_records_t zeroinitializer, align 8

; Function Attrs: null_pointer_is_valid sspstrong uwtable
define internal void @ipsec_cleanup_protocol() #0 {
  %1 = alloca i32, align 4
  call void @llvm.lifetime.start.p0(i64 4, ptr %1) #17
  store i32 0, ptr %1, align 4
  br label %2

2:                                                ; preds = %11, %0
  %3 = load i32, ptr %1, align 4
  %4 = load i32, ptr @extra_esp_sa_records, align 8
  %5 = icmp ult i32 %3, %4
  br i1 %5, label %6, label %14

6:                                                ; preds = %2
  %7 = load ptr, ptr getelementptr inbounds nuw (%struct.extra_esp_sa_records_t, ptr @extra_esp_sa_records, i32 0, i32 1), align 8
  %8 = load i32, ptr %1, align 4
  %9 = zext i32 %8 to i64
  %10 = getelementptr %struct.uat_esp_sa_record_t, ptr %7, i64 %9
  call void @uat_esp_sa_record_free_cb(ptr noundef %10)
  br label %11

11:                                               ; preds = %6
  %12 = load i32, ptr %1, align 4
  %13 = add i32 %12, 1
  store i32 %13, ptr %1, align 4
  br label %2, !llvm.loop !17

14:                                               ; preds = %2
  %15 = load ptr, ptr getelementptr inbounds nuw (%struct.extra_esp_sa_records_t, ptr @extra_esp_sa_records, i32 0, i32 1), align 8
  call void @g_free(ptr noundef %15)
  store ptr null, ptr getelementptr inbounds nuw (%struct.extra_esp_sa_records_t, ptr @extra_esp_sa_records, i32 0, i32 1), align 8
  store i32 0, ptr @extra_esp_sa_records, align 8
  call void @llvm.lifetime.end.p0(i64 4, ptr %1) #17
  ret void
}