; Function Attrs: null_pointer_is_valid sspstrong uwtable
define internal void @ipsec_cleanup_protocol() #0 {
  %1 = load i32, ptr @extra_esp_sa_records.0, align 8
  %.not = icmp eq i32 %1, 0
  br i1 %.not, label %._crit_edge, label %.lr.ph

.lr.ph:                                           ; preds = %0, %.lr.ph
  %indvars.iv = phi i64 [ %indvars.iv.next, %.lr.ph ], [ 0, %0 ]
  %2 = load ptr, ptr @extra_esp_sa_records.1, align 8
  %3 = getelementptr %struct.uat_esp_sa_record_t, ptr %2, i64 %indvars.iv
  tail call void @uat_esp_sa_record_free_cb(ptr noundef %3)
  %indvars.iv.next = add nuw nsw i64 %indvars.iv, 1
  %4 = load i32, ptr @extra_esp_sa_records.0, align 8
  %5 = zext i32 %4 to i64
  %6 = icmp samesign ult i64 %indvars.iv.next, %5
  br i1 %6, label %.lr.ph, label %._crit_edge, !llvm.loop !17

._crit_edge:                                      ; preds = %.lr.ph, %0
  %7 = load ptr, ptr @extra_esp_sa_records.1, align 8
  tail call void @g_free(ptr noundef %7)
  store ptr null, ptr @extra_esp_sa_records.1, align 8
  store i32 0, ptr @extra_esp_sa_records.0, align 8
  ret void
}